target datalayout = "e-m:e-p270:32:32-p271:32:32-p272:64:64-i64:64-i128:128-f80:128-n8:16:32:64-S128"
target triple = "x86_64-pc-linux-gnu"

%struct.AVPacketSideData = type { ptr, i64, i32 }

; Function Attrs: nounwind uwtable
define ptr @av_packet_side_data_get(ptr noundef %0, i32 noundef %1, i32 noundef %2) #0 {
  %4 = alloca ptr, align 8
  %5 = alloca ptr, align 8
  %6 = alloca i32, align 4
  %7 = alloca i32, align 4
  %8 = alloca i32, align 4
  %9 = alloca i32, align 4
  store ptr %0, ptr %5, align 8, !tbaa !47
  store i32 %1, ptr %6, align 4, !tbaa !28
  store i32 %2, ptr %7, align 4, !tbaa !28
  call void @llvm.lifetime.start.p0(i64 4, ptr %8) #9
  store i32 0, ptr %8, align 4, !tbaa !28
  br label %10

10:                                               ; preds = %30, %3
  %11 = load i32, ptr %8, align 4, !tbaa !28
  %12 = load i32, ptr %6, align 4, !tbaa !28
  %13 = icmp slt i32 %11, %12
  br i1 %13, label %15, label %14

14:                                               ; preds = %10
  store i32 2, ptr %9, align 4
  br label %33

15:                                               ; preds = %10
  %16 = load ptr, ptr %5, align 8, !tbaa !47
  %17 = load i32, ptr %8, align 4, !tbaa !28
  %18 = sext i32 %17 to i64
  %19 = getelementptr inbounds %struct.AVPacketSideData, ptr %16, i64 %18
  %20 = getelementptr inbounds nuw %struct.AVPacketSideData, ptr %19, i32 0, i32 2
  %21 = load i32, ptr %20, align 8, !tbaa !48
  %22 = load i32, ptr %7, align 4, !tbaa !28
  %23 = icmp eq i32 %21, %22
  br i1 %23, label %24, label %29

24:                                               ; preds = %15
  %25 = load ptr, ptr %5, align 8, !tbaa !47
  %26 = load i32, ptr %8, align 4, !tbaa !28
  %27 = sext i32 %26 to i64
  %28 = getelementptr inbounds %struct.AVPacketSideData, ptr %25, i64 %27
  store ptr %28, ptr %4, align 8
  store i32 1, ptr %9, align 4
  br label %33

29:                                               ; preds = %15
  br label %30

30:                                               ; preds = %29
  %31 = load i32, ptr %8, align 4, !tbaa !28
  %32 = add nsw i32 %31, 1
  store i32 %32, ptr %8, align 4, !tbaa !28
  br label %10, !llvm.loop !90

33:                                               ; preds = %24, %14
  call void @llvm.lifetime.end.p0(i64 4, ptr %8) #9
  %34 = load i32, ptr %9, align 4
  switch i32 %34, label %38 [
    i32 2, label %35
    i32 1, label %36
  ]

35:                                               ; preds = %33
  store ptr null, ptr %4, align 8
  br label %36

36:                                               ; preds = %35, %33
  %37 = load ptr, ptr %4, align 8
  ret ptr %37

38:                                               ; preds = %33
  unreachable
}