; Function Attrs: nofree norecurse nosync nounwind memory(argmem: read) uwtable
define ptr @av_packet_side_data_get(ptr noundef readonly captures(ret: address, provenance) %0, i32 noundef %1, i32 noundef %2) local_unnamed_addr #15 {
  %.not11 = icmp sgt i32 %1, 0
  br i1 %.not11, label %.lr.ph.preheader, label %._crit_edge

.lr.ph.preheader:                                 ; preds = %3
  %wide.trip.count = zext nneg i32 %1 to i64
  br label %.lr.ph

4:                                                ; preds = %.lr.ph
  %indvars.iv.next = add nuw nsw i64 %indvars.iv, 1
  %exitcond.not = icmp eq i64 %indvars.iv.next, %wide.trip.count
  br i1 %exitcond.not, label %._crit_edge, label %.lr.ph, !llvm.loop !67

.lr.ph:                                           ; preds = %.lr.ph.preheader, %4
  %indvars.iv = phi i64 [ 0, %.lr.ph.preheader ], [ %indvars.iv.next, %4 ]
  %5 = getelementptr inbounds nuw %struct.AVPacketSideData, ptr %0, i64 %indvars.iv
  %6 = getelementptr inbounds nuw i8, ptr %5, i64 16
  %7 = load i32, ptr %6, align 8, !tbaa !35
  %8 = icmp eq i32 %7, %2
  br i1 %8, label %._crit_edge, label %4

._crit_edge:                                      ; preds = %4, %.lr.ph, %3
  %spec.select = phi ptr [ null, %3 ], [ %5, %.lr.ph ], [ null, %4 ]
  ret ptr %spec.select
}